; Function Attrs: nounwind uwtable
define dso_local void @GinInitMetabuffer(i32 noundef %0) local_unnamed_addr #0 {
  %2 = icmp slt i32 %0, 0
  br i1 %2, label %3, label %9

3:                                                ; preds = %1
  %4 = load ptr, ptr @LocalBufferBlockPointers, align 8
  %5 = xor i32 %0, -1
  %6 = zext nneg i32 %5 to i64
  %7 = getelementptr inbounds nuw ptr, ptr %4, i64 %6
  %8 = load ptr, ptr %7, align 8
  br label %BufferGetPage.exit

9:                                                ; preds = %1
  %10 = load ptr, ptr @BufferBlocks, align 8
  %11 = add nsw i32 %0, -1
  %12 = sext i32 %11 to i64
  %13 = shl nsw i64 %12, 13
  %14 = getelementptr inbounds nuw i8, ptr %10, i64 %13
  br label %BufferGetPage.exit

BufferGetPage.exit:                               ; preds = %3, %9
  %.0.i.i = phi ptr [ %8, %3 ], [ %14, %9 ]
  tail call void @PageInit(ptr noundef %.0.i.i, i64 noundef 8192, i64 noundef 8) #7
  %15 = getelementptr inbounds nuw i8, ptr %.0.i.i, i64 16
  %16 = load i16, ptr %15, align 4
  %17 = zext i16 %16 to i64
  %18 = getelementptr inbounds nuw i8, ptr %.0.i.i, i64 %17
  %19 = getelementptr inbounds nuw i8, ptr %18, i64 6
  store i16 8, ptr %19, align 2
  store i32 -1, ptr %18, align 4
  %20 = getelementptr inbounds nuw i8, ptr %.0.i.i, i64 24
  %21 = getelementptr inbounds nuw i8, ptr %.0.i.i, i64 28
  store i32 -1, ptr %21, align 4
  store i32 -1, ptr %20, align 8
  %22 = getelementptr inbounds nuw i8, ptr %.0.i.i, i64 32
  %23 = getelementptr inbounds nuw i8, ptr %.0.i.i, i64 64
  store i64 0, ptr %23, align 8
  %24 = getelementptr inbounds nuw i8, ptr %.0.i.i, i64 72
  tail call void @llvm.memset.p0.i64(ptr noundef nonnull align 8 dereferenceable(28) %22, i8 0, i64 28, i1 false)
  store i32 2, ptr %24, align 8
  %25 = getelementptr inbounds nuw i8, ptr %.0.i.i, i64 12
  store i16 80, ptr %25, align 4
  ret void
}